; Function Attrs: mustprogress nofree nounwind willreturn memory(write, argmem: readwrite) uwtable
define internal noundef double @"_ZNSt17_Function_handlerIFddEN15neuralnetworkCV3$_3EE9_M_invokeERKSt9_Any_dataOd"(ptr nonnull readnone align 8 captures(none) %0, ptr noundef nonnull readonly align 8 captures(none) dereferenceable(8) %1) #12 align 2 {
  %.val = load double, ptr %1, align 8, !tbaa !21
  %3 = fneg double %.val
  %4 = tail call double @exp(double noundef %3) #32, !tbaa !23
  %5 = tail call double @exp(double noundef %3) #32, !tbaa !23
  %6 = fadd double %5, 1.000000e+00
  %7 = tail call double @exp(double noundef %3) #32, !tbaa !23
  %8 = fadd double %7, 1.000000e+00
  %9 = fmul double %6, %8
  %10 = fdiv double %4, %9
  ret double %10
}